(dp0
S'hyp'
p1
(dp2
S'valid_dis_hyp'
p3
(lp4
sS'relations_hyp'
p5
(dp6
S'dir'
p7
(lp8
S''
p9
asS'dis'
p10
(lp11
g9
assS'valid_dir_hyp'
p12
(lp13
sS'relations'
p14
(dp15
g7
(dp16
sg10
(dp17
ssg1
(dp18
S'and'
p19
(dp20
S'HSV_points_x_std'
p21
cnumpy.core.multiarray
scalar
p22
(cnumpy
dtype
p23
(S'f8'
p24
I0
I1
tp25
Rp26
(I3
S'<'
p27
NNNI-1
I-1
I0
tp28
bS'\xc0\x1e\x85\xebQ\xb8\x8e?'
p29
tp30
Rp31
sS'score_dis'
p32
(dp33
sS'score_dir'
p34
(dp35
sS'score_HSV_z'
p36
(lp37
sS'score_HSV_x'
p38
(lp39
sS'score_HSV_y'
p40
(lp41
sS'score_HSV'
p42
(dp43
sS'HSV_points_z_std'
p44
g22
(g26
S'\x80\x14\xaeG\xe1zt?'
p45
tp46
Rp47
sS'counter_dis'
p48
I0
sS'counter_dir'
p49
I0
sS'hist_dis'
p50
(dp51
sS'HSV_points_y_std'
p52
g22
(g26
S'\xb8\x1e\x85\xebQ\xb8\x8e?'
p53
tp54
Rp55
sS'hist_HSV'
p56
(dp57
(I189
I79
I77
tp58
I1
s(I40
I64
I87
tp59
I1
s(I192
I76
I76
tp60
I1
s(I40
I65
I87
tp61
I1
s(I124
I189
I92
tp62
I1
s(I111
I169
I80
tp63
I1
ssS'hist_dir'
p64
(dp65
sS'score_dis_x'
p66
(lp67
sS'HSV_points_z'
p68
(lp69
F0.76
aF0.77
asS'hist_HSV_x'
p70
(lp71
I111
aI192
aI40
aI189
aI40
aI124
asS'HSV_points_x'
p72
(lp73
F0.92
aF0.89
asS'hist_HSV_z'
p74
(lp75
I80
aI76
aI87
aI77
aI87
aI92
asS'score_dir_x'
p76
(lp77
sS'hist_HSV_y'
p78
(lp79
I169
aI76
aI64
aI79
aI65
aI189
asS'HSV_points_z_mean'
p80
g22
(g26
S'{\x14\xaeG\xe1z\xe8?'
p81
tp82
Rp83
sS'HSV_points_x_mean'
p84
g22
(g26
S'\xf6(\\\x8f\xc2\xf5\xec?'
p85
tp86
Rp87
sS'HSV_points_y'
p88
(lp89
F-0.24
aF-0.21
asS'HSV_points_y_mean'
p90
g22
(g26
S'\xcc\xcc\xcc\xcc\xcc\xcc\xcc\xbf'
p91
tp92
Rp93
sS'hist_dir_x'
p94
(lp95
sS'hist_dis_x'
p96
(lp97
sS'counter_HSV'
p98
I3
ssS'blue'
p99
(dp100
g21
g22
(g26
S'\x00\x00\x00\x00\x00\x00\x00\x00'
p101
tp102
Rp103
sg32
(dp104
sg34
(dp105
sg36
(lp106
I87
aI87
aI87
aI87
asg38
(lp107
I40
aI40
aI40
aI40
asg40
(lp108
I64
aI65
aI64
aI65
asg42
(dp109
sg44
g22
(g26
S'\x00\x00\x00\x00\x00\x00\x00\x00'
p110
tp111
Rp112
sg48
I0
sg49
I0
sg50
(dp113
sg52
g22
(g26
S'\x80\x14\xaeG\xe1zt?'
p114
tp115
Rp116
sg56
(dp117
(I189
I79
I77
tp118
I1
s(I40
I64
I87
tp119
I1
s(I40
I65
I87
tp120
I1
s(I124
I189
I92
tp121
I1
ssg64
(dp122
sg66
(lp123
sg68
(lp124
F0.87
aF0.87
asg70
(lp125
I40
aI189
aI40
aI124
asg72
(lp126
F-0.6
aF-0.6
asg74
(lp127
I87
aI77
aI87
aI92
asg76
(lp128
sg78
(lp129
I64
aI79
aI65
aI189
asg80
g22
(g26
S'\xd7\xa3p=\n\xd7\xeb?'
p130
tp131
Rp132
sg84
g22
(g26
S'333333\xe3\xbf'
p133
tp134
Rp135
sg88
(lp136
F-0.36
aF-0.35
asg90
g22
(g26
S'\xb8\x1e\x85\xebQ\xb8\xd6\xbf'
p137
tp138
Rp139
sg94
(lp140
sg96
(lp141
sg98
I2
ssS'green'
p142
(dp143
g21
g22
(g26
S'\xa4p=\n\xd7\xa3\xb0?'
p144
tp145
Rp146
sg32
(dp147
sg34
(dp148
sg36
(lp149
I92
aI80
aI92
aI80
asg38
(lp150
I124
aI111
aI124
aI111
asg40
(lp151
I189
aI169
aI189
aI169
asg42
(dp152
sg44
g22
(g26
S'\xb8\x1e\x85\xebQ\xb8\xae?'
p153
tp154
Rp155
sg48
I0
sg49
I0
sg50
(dp156
sg52
g22
(g26
S'\x9c\x99\x99\x99\x99\x99\xb9?'
p157
tp158
Rp159
sg56
(dp160
(I192
I76
I76
tp161
I1
s(I40
I65
I87
tp162
I1
s(I124
I189
I92
tp163
I1
s(I111
I169
I80
tp164
I1
ssg64
(dp165
sg66
(lp166
sg68
(lp167
F0.8
aF0.92
asg70
(lp168
I111
aI192
aI40
aI124
asg72
(lp169
F0.11
aF0.24
asg74
(lp170
I80
aI76
aI87
aI92
asg76
(lp171
sg78
(lp172
I169
aI76
aI65
aI189
asg80
g22
(g26
S'\x86\xebQ\xb8\x1e\x85\xeb?'
p173
tp174
Rp175
sg84
g22
(g26
S'ffffff\xc6?'
p176
tp177
Rp178
sg88
(lp179
F0.69
aF0.89
asg90
g22
(g26
S'H\xe1z\x14\xaeG\xe9?'
p180
tp181
Rp182
sg94
(lp183
sg96
(lp184
sg98
I2
ssS'red'
p185
(dp186
g21
g22
(g26
S'a\xe5\x81[\xcd\xdf\xa1?'
p187
tp188
Rp189
sg32
(dp190
sg34
(dp191
sg36
(lp192
I77
aI76
aI63
aI76
aI77
aI76
aI63
aI76
aI77
aI76
aI63
aI76
aI77
aI76
aI63
aI76
aI77
aI76
aI63
aI76
aI77
aI76
aI63
aI76
aI77
aI76
aI63
aI76
aI77
aI76
aI63
aI76
asg38
(lp193
I189
aI192
aI183
aI191
aI189
aI192
aI183
aI191
aI189
aI192
aI183
aI191
aI189
aI192
aI183
aI191
aI189
aI192
aI183
aI191
aI189
aI192
aI183
aI191
aI189
aI192
aI183
aI191
aI189
aI192
aI183
aI191
asg40
(lp194
I79
aI76
aI79
aI78
aI79
aI76
aI79
aI78
aI79
aI76
aI79
aI78
aI79
aI76
aI79
aI78
aI79
aI76
aI79
aI78
aI79
aI76
aI79
aI78
aI79
aI76
aI79
aI78
aI79
aI76
aI79
aI78
asg42
(dp195
sg44
g22
(g26
S'O\x906)W\xa2\xad?'
p196
tp197
Rp198
sg48
I0
sg49
I0
sg50
(dp199
sg52
g22
(g26
S'nS|\xbd0\x15\x89?'
p200
tp201
Rp202
sg56
(dp203
(I189
I79
I77
tp204
I1
s(I40
I64
I87
tp205
I1
s(I192
I76
I76
tp206
I1
s(I183
I79
I63
tp207
I1
s(I191
I78
I76
tp208
I1
s(I111
I169
I80
tp209
I1
ssg64
(dp210
sg66
(lp211
sg68
(lp212
F0.63
aF0.76
aF0.76
aF0.77
asg70
(lp213
I183
aI191
aI111
aI192
aI40
aI189
asg72
(lp214
F0.83
aF0.91
aF0.92
aF0.89
asg74
(lp215
I63
aI76
aI80
aI76
aI87
aI77
asg76
(lp216
sg78
(lp217
I79
aI78
aI169
aI76
aI64
aI79
asg80
g22
(g26
S']\x8f\xc2\xf5(\\\xe7?'
p218
tp219
Rp220
sg84
g22
(g26
S'gfffff\xec?'
p221
tp222
Rp223
sg88
(lp224
F-0.21
aF-0.22
aF-0.24
aF-0.21
asg90
g22
(g26
S'(\\\x8f\xc2\xf5(\xcc\xbf'
p225
tp226
Rp227
sg94
(lp228
sg96
(lp229
sg98
I4
sssS'objects'
p230
(dp231
I0
g99
sI1
g142
ssS'objects_hyp'
p232
(lp233
g99
ag142
asS'words'
p234
(lp235
S'green'
p236
aS'and'
p237
aS'blue'
p238
asS'valid_HSV_hyp'
p239
(lp240
g99
ag142
ag185
assS'SPA'
p241
(lp242
(lp243
(lp244
g22
(g26
S'\xc3\xa5.\x8c\xfd<1\xbf'
p245
tp246
Rp247
aa(lp248
g22
(g26
S'\x9e\xe7\xcf\xcf\xeb\x94\x19?'
p249
tp250
Rp251
aa(lp252
F0.5
aaF1.0
aF1.0
aF1.0
aa(lp253
(lp254
g22
(g26
S'v\xb6\xd1#\r\xf60\xbf'
p255
tp256
Rp257
aa(lp258
g22
(g26
S'\xfdw\x91\xd3\x1d\xfa\x1c?'
p259
tp260
Rp261
aa(lp262
F0.5
aaF1.0
aF1.0
aF1.0
aa(lp263
(lp264
g22
(g26
S'\xc8\xa1\xa3p\xec(0\xbf'
p265
tp266
Rp267
aa(lp268
g22
(g26
S'X\xf7}\x9b}\x97\x15?'
p269
tp270
Rp271
aa(lp272
F0.5
aaF1.0
aF1.0
aF1.0
aasS'HSV'
p273
(lp274
(lp275
(lp276
g22
(g26
S'\x1f\xc4C\xad#\x9d\xea?'
p277
tp278
Rp279
aa(lp280
g22
(g26
S'\xd4\xe7zb\xd3\x8a\xca\xbf'
p281
tp282
Rp283
aa(lp284
F0.6313725490196078
aaF0.6313725490196078
aF0.09019607843137256
ag22
(g26
S'\xb7\x1b\x82\xe8N\xb5\xcb?'
p285
tp286
Rp287
aa(lp288
(lp289
g22
(g26
S'\xa2\xc5\x84N\xd6B\xed?'
p290
tp291
Rp292
aa(lp293
g22
(g26
S'\xe6\x92#\x86\x95\x05\xcb\xbf'
p294
tp295
Rp296
aa(lp297
F0.7647058823529411
aaF0.7647058823529411
aF0.04705882352941182
ag22
(g26
S'\xf1\xb9\x86S \xed\xc9?'
p298
tp299
Rp300
aa(lp301
(lp302
g22
(g26
S'\xb4\xec\xb5GzS\xbc?'
p303
tp304
Rp305
aa(lp306
g22
(g26
S'\x0f|\xb1\xe5\x00[\xe6?'
p307
tp308
Rp309
aa(lp310
F0.803921568627451
aag22
(g26
S'[[[[[[\xe3?'
p311
tp312
Rp313
aF0.803921568627451
aF0.23529411764705888
aa(lp314
(lp315
g22
(g26
S'\x00\xd5\x05\x1e\xcd\x9d\xed?'
p316
tp317
Rp318
aa(lp319
g22
(g26
S'\xf6\x98\xbe\xe3k\x89\xcd\xbf'
p320
tp321
Rp322
aa(lp323
F0.7647058823529411
aaF0.7647058823529411
aF0.03529411764705881
ag22
(g26
S'N\x1a\xe7\xb3\x80M\xca?'
p324
tp325
Rp326
aa(lp327
(lp328
g22
(g26
S'\xb4\xec\xb5GzS\xbc?'
p329
tp330
Rp331
aa(lp332
g22
(g26
S'\x0f|\xb1\xe5\x00[\xe6?'
p333
tp334
Rp335
aa(lp336
F0.803921568627451
aag22
(g26
S'[[[[[[\xe3?'
p337
tp338
Rp339
aF0.803921568627451
aF0.23529411764705888
aa(lp340
(lp341
g22
(g26
S'\x00\xd5\x05\x1e\xcd\x9d\xed?'
p342
tp343
Rp344
aa(lp345
g22
(g26
S'\xf6\x98\xbe\xe3k\x89\xcd\xbf'
p346
tp347
Rp348
aa(lp349
F0.7647058823529411
aaF0.7647058823529411
aF0.03529411764705881
ag22
(g26
S'N\x1a\xe7\xb3\x80M\xca?'
p350
tp351
Rp352
aa(lp353
(lp354
g22
(g26
S'\xb4\xec\xb5GzS\xbc?'
p355
tp356
Rp357
aa(lp358
g22
(g26
S'\x0f|\xb1\xe5\x00[\xe6?'
p359
tp360
Rp361
aa(lp362
F0.803921568627451
aag22
(g26
S'[[[[[[\xe3?'
p363
tp364
Rp365
aF0.803921568627451
aF0.23529411764705888
aa(lp366
(lp367
g22
(g26
S'\x00\xd5\x05\x1e\xcd\x9d\xed?'
p368
tp369
Rp370
aa(lp371
g22
(g26
S'\xf6\x98\xbe\xe3k\x89\xcd\xbf'
p372
tp373
Rp374
aa(lp375
F0.7647058823529411
aaF0.7647058823529411
aF0.03529411764705881
ag22
(g26
S'N\x1a\xe7\xb3\x80M\xca?'
p376
tp377
Rp378
aa(lp379
(lp380
g22
(g26
S'I\xd1\x12\x0cC\x1a\xe3\xbf'
p381
tp382
Rp383
aa(lp384
g22
(g26
S'I\x9baI\xbb\xf4\xd6\xbf'
p385
tp386
Rp387
aa(lp388
F0.8784313725490196
aaF0.2666666666666666
ag22
(g26
S'\xff1e\x98\xcb\xfe\xe1?'
p389
tp390
Rp391
aF0.8784313725490196
aa(lp392
(lp393
g22
(g26
S'=\xf6(\x89\xc0\xa5\xec?'
p394
tp395
Rp396
aa(lp397
g22
(g26
S'\xa8\xf8\xa63\x85t\xca\xbf'
p398
tp399
Rp400
aa(lp401
F0.7725490196078432
aaF0.7725490196078432
aF0.06274509803921569
ag22
(g26
S'e\xa6\xea.s\xb7\xcb?'
p402
tp403
Rp404
aa(lp405
(lp406
g22
(g26
S'I\xd1\x12\x0cC\x1a\xe3\xbf'
p407
tp408
Rp409
aa(lp410
g22
(g26
S'I\x9baI\xbb\xf4\xd6\xbf'
p411
tp412
Rp413
aa(lp414
F0.8784313725490196
aaF0.2666666666666666
ag22
(g26
S'\xff1e\x98\xcb\xfe\xe1?'
p415
tp416
Rp417
aF0.8784313725490196
aa(lp418
(lp419
g22
(g26
S'=\xf6(\x89\xc0\xa5\xec?'
p420
tp421
Rp422
aa(lp423
g22
(g26
S'\xa8\xf8\xa63\x85t\xca\xbf'
p424
tp425
Rp426
aa(lp427
F0.7725490196078432
aaF0.7725490196078432
aF0.06274509803921569
ag22
(g26
S'e\xa6\xea.s\xb7\xcb?'
p428
tp429
Rp430
aa(lp431
(lp432
g22
(g26
S'I\xd1\x12\x0cC\x1a\xe3\xbf'
p433
tp434
Rp435
aa(lp436
g22
(g26
S'I\x9baI\xbb\xf4\xd6\xbf'
p437
tp438
Rp439
aa(lp440
F0.8784313725490196
aaF0.2666666666666666
ag22
(g26
S'\xff1e\x98\xcb\xfe\xe1?'
p441
tp442
Rp443
aF0.8784313725490196
aa(lp444
(lp445
g22
(g26
S'=\xf6(\x89\xc0\xa5\xec?'
p446
tp447
Rp448
aa(lp449
g22
(g26
S'\xa8\xf8\xa63\x85t\xca\xbf'
p450
tp451
Rp452
aa(lp453
F0.7725490196078432
aaF0.7725490196078432
aF0.06274509803921569
ag22
(g26
S'e\xa6\xea.s\xb7\xcb?'
p454
tp455
Rp456
aa(lp457
(lp458
g22
(g26
S'}\xfd\xdbap\x19\xe3\xbf'
p459
tp460
Rp461
aa(lp462
g22
(g26
S'\xdf`\x8a|\xd6\r\xd6\xbf'
p463
tp464
Rp465
aa(lp466
F0.8705882352941177
aaF0.2705882352941176
ag22
(g26
S'BBBBBB\xe2?'
p467
tp468
Rp469
aF0.8705882352941177
aa(lp470
(lp471
g22
(g26
S'\x1a\x0b-W\xa4\xc0\xce?'
p472
tp473
Rp474
aa(lp475
g22
(g26
S'\xf7u\x93bF\xb1\xec?'
p476
tp477
Rp478
aa(lp479
F0.9294117647058824
aag22
(g26
S'\xd7\xd6\xd6\xd6\xd6\xd6\xe6?'
p480
tp481
Rp482
aF0.9294117647058824
aF0.06666666666666665
aa(lp483
(lp484
g22
(g26
S'}\xfd\xdbap\x19\xe3\xbf'
p485
tp486
Rp487
aa(lp488
g22
(g26
S'\xdf`\x8a|\xd6\r\xd6\xbf'
p489
tp490
Rp491
aa(lp492
F0.8705882352941177
aaF0.2705882352941176
ag22
(g26
S'BBBBBB\xe2?'
p493
tp494
Rp495
aF0.8705882352941177
aa(lp496
(lp497
g22
(g26
S'\x1a\x0b-W\xa4\xc0\xce?'
p498
tp499
Rp500
aa(lp501
g22
(g26
S'\xf7u\x93bF\xb1\xec?'
p502
tp503
Rp504
aa(lp505
F0.9294117647058824
aag22
(g26
S'\xd7\xd6\xd6\xd6\xd6\xd6\xe6?'
p506
tp507
Rp508
aF0.9294117647058824
aF0.06666666666666665
aa(lp509
(lp510
g22
(g26
S'}\xfd\xdbap\x19\xe3\xbf'
p511
tp512
Rp513
aa(lp514
g22
(g26
S'\xdf`\x8a|\xd6\r\xd6\xbf'
p515
tp516
Rp517
aa(lp518
F0.8705882352941177
aaF0.2705882352941176
ag22
(g26
S'BBBBBB\xe2?'
p519
tp520
Rp521
aF0.8705882352941177
aa(lp522
(lp523
g22
(g26
S'\x1a\x0b-W\xa4\xc0\xce?'
p524
tp525
Rp526
aa(lp527
g22
(g26
S'\xf7u\x93bF\xb1\xec?'
p528
tp529
Rp530
aa(lp531
F0.9294117647058824
aag22
(g26
S'\xd7\xd6\xd6\xd6\xd6\xd6\xe6?'
p532
tp533
Rp534
aF0.9294117647058824
aF0.06666666666666665
aas.